target datalayout = "e-m:e-p270:32:32-p271:32:32-p272:64:64-i64:64-i128:128-f80:128-n8:16:32:64-S128"
target triple = "x86_64-pc-linux-gnu"

%class.CrowdToolState = type <{ %struct.SampleToolState, ptr, ptr, ptr, [3 x float], i32, %struct.dtCrowdAgentDebugInfo, ptr, [128 x %"struct.CrowdToolState::AgentTrail"], %class.ValueHistory, %class.ValueHistory, %struct.CrowdToolParams, i8, [7 x i8] }>
%struct.SampleToolState = type { ptr }
%struct.dtCrowdAgentDebugInfo = type { i32, [3 x float], [3 x float], ptr }
%"struct.CrowdToolState::AgentTrail" = type { [192 x float], i32 }
%class.ValueHistory = type { [256 x float], i32 }
%struct.CrowdToolParams = type { i8, i8, i8, i8, i8, i8, i8, i8, i8, i8, i8, i8, i8, i8, i8, i8, i8, i8, float, i8, float }
%struct.dtCrowdAgent = type { i8, i8, i8, %class.dtPathCorridor, %class.dtLocalBoundary, float, [6 x %struct.dtCrowdNeighbour], i32, float, [3 x float], [3 x float], [3 x float], [3 x float], [3 x float], %struct.dtCrowdAgentParams, [12 x float], [4 x i8], [4 x i32], i32, i8, i32, [3 x float], i32, i8, float }
%class.dtPathCorridor = type { [3 x float], [3 x float], ptr, i32, i32 }
%class.dtLocalBoundary = type { [3 x float], [8 x %"struct.dtLocalBoundary::Segment"], i32, [16 x i32], i32 }
%"struct.dtLocalBoundary::Segment" = type { [6 x float], float }
%struct.dtCrowdNeighbour = type { i32, float }
%struct.dtCrowdAgentParams = type { float, float, float, float, float, float, float, i8, i8, i8, ptr }

; Function Attrs: mustprogress uwtable
define dso_local void @_ZN14CrowdToolState17updateAgentParamsEv(ptr noundef nonnull align 8 dereferenceable(101001) %0) #0 align 2 {
  %2 = alloca ptr, align 8
  %3 = alloca ptr, align 8
  %4 = alloca i8, align 1
  %5 = alloca i8, align 1
  %6 = alloca %struct.dtCrowdAgentParams, align 8
  %7 = alloca i32, align 4
  %8 = alloca ptr, align 8
  store ptr %0, ptr %2, align 8
  %9 = load ptr, ptr %2, align 8
  %10 = getelementptr inbounds %class.CrowdToolState, ptr %9, i32 0, i32 1
  %11 = load ptr, ptr %10, align 8
  %12 = icmp ne ptr %11, null
  br i1 %12, label %14, label %13

13:                                               ; preds = %1
  br label %119

14:                                               ; preds = %1
  %15 = getelementptr inbounds %class.CrowdToolState, ptr %9, i32 0, i32 1
  %16 = load ptr, ptr %15, align 8
  %17 = load ptr, ptr %16, align 8
  %18 = getelementptr inbounds ptr, ptr %17, i64 17
  %19 = load ptr, ptr %18, align 8
  %20 = call noundef ptr %19(ptr noundef nonnull align 8 dereferenceable(200) %16)
  store ptr %20, ptr %3, align 8
  %21 = load ptr, ptr %3, align 8
  %22 = icmp ne ptr %21, null
  br i1 %22, label %24, label %23

23:                                               ; preds = %14
  br label %119

24:                                               ; preds = %14
  store i8 0, ptr %4, align 1
  store i8 0, ptr %5, align 1
  %25 = getelementptr inbounds %class.CrowdToolState, ptr %9, i32 0, i32 11
  %26 = getelementptr inbounds %struct.CrowdToolParams, ptr %25, i32 0, i32 14
  %27 = load i8, ptr %26, align 2
  %28 = trunc i8 %27 to i1
  br i1 %28, label %29, label %34

29:                                               ; preds = %24
  %30 = load i8, ptr %4, align 1
  %31 = zext i8 %30 to i32
  %32 = or i32 %31, 1
  %33 = trunc i32 %32 to i8
  store i8 %33, ptr %4, align 1
  br label %34

34:                                               ; preds = %29, %24
  %35 = getelementptr inbounds %class.CrowdToolState, ptr %9, i32 0, i32 11
  %36 = getelementptr inbounds %struct.CrowdToolParams, ptr %35, i32 0, i32 15
  %37 = load i8, ptr %36, align 1
  %38 = trunc i8 %37 to i1
  br i1 %38, label %39, label %44

39:                                               ; preds = %34
  %40 = load i8, ptr %4, align 1
  %41 = zext i8 %40 to i32
  %42 = or i32 %41, 8
  %43 = trunc i32 %42 to i8
  store i8 %43, ptr %4, align 1
  br label %44

44:                                               ; preds = %39, %34
  %45 = getelementptr inbounds %class.CrowdToolState, ptr %9, i32 0, i32 11
  %46 = getelementptr inbounds %struct.CrowdToolParams, ptr %45, i32 0, i32 16
  %47 = load i8, ptr %46, align 8
  %48 = trunc i8 %47 to i1
  br i1 %48, label %49, label %54

49:                                               ; preds = %44
  %50 = load i8, ptr %4, align 1
  %51 = zext i8 %50 to i32
  %52 = or i32 %51, 16
  %53 = trunc i32 %52 to i8
  store i8 %53, ptr %4, align 1
  br label %54

54:                                               ; preds = %49, %44
  %55 = getelementptr inbounds %class.CrowdToolState, ptr %9, i32 0, i32 11
  %56 = getelementptr inbounds %struct.CrowdToolParams, ptr %55, i32 0, i32 17
  %57 = load i8, ptr %56, align 1
  %58 = trunc i8 %57 to i1
  br i1 %58, label %59, label %64

59:                                               ; preds = %54
  %60 = load i8, ptr %4, align 1
  %61 = zext i8 %60 to i32
  %62 = or i32 %61, 2
  %63 = trunc i32 %62 to i8
  store i8 %63, ptr %4, align 1
  br label %64

64:                                               ; preds = %59, %54
  %65 = getelementptr inbounds %class.CrowdToolState, ptr %9, i32 0, i32 11
  %66 = getelementptr inbounds %struct.CrowdToolParams, ptr %65, i32 0, i32 17
  %67 = load i8, ptr %66, align 1
  %68 = trunc i8 %67 to i1
  br i1 %68, label %69, label %74

69:                                               ; preds = %64
  %70 = load i8, ptr %4, align 1
  %71 = zext i8 %70 to i32
  %72 = or i32 %71, 2
  %73 = trunc i32 %72 to i8
  store i8 %73, ptr %4, align 1
  br label %74

74:                                               ; preds = %69, %64
  %75 = getelementptr inbounds %class.CrowdToolState, ptr %9, i32 0, i32 11
  %76 = getelementptr inbounds %struct.CrowdToolParams, ptr %75, i32 0, i32 19
  %77 = load i8, ptr %76, align 8
  %78 = trunc i8 %77 to i1
  br i1 %78, label %79, label %84

79:                                               ; preds = %74
  %80 = load i8, ptr %4, align 1
  %81 = zext i8 %80 to i32
  %82 = or i32 %81, 4
  %83 = trunc i32 %82 to i8
  store i8 %83, ptr %4, align 1
  br label %84

84:                                               ; preds = %79, %74
  %85 = getelementptr inbounds %class.CrowdToolState, ptr %9, i32 0, i32 11
  %86 = getelementptr inbounds %struct.CrowdToolParams, ptr %85, i32 0, i32 18
  %87 = load float, ptr %86, align 4
  %88 = fptoui float %87 to i8
  store i8 %88, ptr %5, align 1
  store i32 0, ptr %7, align 4
  br label %89

89:                                               ; preds = %116, %84
  %90 = load i32, ptr %7, align 4
  %91 = load ptr, ptr %3, align 8
  %92 = call noundef i32 @_ZNK7dtCrowd13getAgentCountEv(ptr noundef nonnull align 8 dereferenceable(5072) %91)
  %93 = icmp slt i32 %90, %92
  br i1 %93, label %94, label %119

94:                                               ; preds = %89
  %95 = load ptr, ptr %3, align 8
  %96 = load i32, ptr %7, align 4
  %97 = call noundef ptr @_ZN7dtCrowd8getAgentEi(ptr noundef nonnull align 8 dereferenceable(5072) %95, i32 noundef %96)
  store ptr %97, ptr %8, align 8
  %98 = load ptr, ptr %8, align 8
  %99 = getelementptr inbounds %struct.dtCrowdAgent, ptr %98, i32 0, i32 0
  %100 = load i8, ptr %99, align 8
  %101 = trunc i8 %100 to i1
  br i1 %101, label %103, label %102

102:                                              ; preds = %94
  br label %116

103:                                              ; preds = %94
  %104 = load ptr, ptr %8, align 8
  %105 = getelementptr inbounds %struct.dtCrowdAgent, ptr %104, i32 0, i32 14
  call void @llvm.memcpy.p0.p0.i64(ptr align 8 %6, ptr align 8 %105, i64 40, i1 false)
  %106 = load i8, ptr %4, align 1
  %107 = getelementptr inbounds %struct.dtCrowdAgentParams, ptr %6, i32 0, i32 7
  store i8 %106, ptr %107, align 4
  %108 = load i8, ptr %5, align 1
  %109 = getelementptr inbounds %struct.dtCrowdAgentParams, ptr %6, i32 0, i32 8
  store i8 %108, ptr %109, align 1
  %110 = getelementptr inbounds %class.CrowdToolState, ptr %9, i32 0, i32 11
  %111 = getelementptr inbounds %struct.CrowdToolParams, ptr %110, i32 0, i32 20
  %112 = load float, ptr %111, align 4
  %113 = getelementptr inbounds %struct.dtCrowdAgentParams, ptr %6, i32 0, i32 6
  store float %112, ptr %113, align 8
  %114 = load ptr, ptr %3, align 8
  %115 = load i32, ptr %7, align 4
  call void @_ZN7dtCrowd21updateAgentParametersEiPK18dtCrowdAgentParams(ptr noundef nonnull align 8 dereferenceable(5072) %114, i32 noundef %115, ptr noundef %6)
  br label %116

116:                                              ; preds = %103, %102
  %117 = load i32, ptr %7, align 4
  %118 = add nsw i32 %117, 1
  store i32 %118, ptr %7, align 4
  br label %89, !llvm.loop !33

119:                                              ; preds = %89, %23, %13
  ret void
}