; Function Attrs: mustprogress uwtable
define dso_local void @_ZN14CrowdToolState17updateAgentParamsEv(ptr nocapture noundef nonnull readonly align 8 dereferenceable(101001) %0) local_unnamed_addr #0 align 2 {
  %2 = alloca %struct.dtCrowdAgentParams, align 8
  %3 = getelementptr inbounds i8, ptr %0, i64 8
  %4 = load ptr, ptr %3, align 8
  %.not = icmp eq ptr %4, null
  br i1 %.not, label %.loopexit, label %5

5:                                                ; preds = %1
  %6 = load ptr, ptr %4, align 8
  %7 = getelementptr inbounds i8, ptr %6, i64 136
  %8 = load ptr, ptr %7, align 8
  %9 = tail call noundef ptr %8(ptr noundef nonnull align 8 dereferenceable(200) %4)
  %.not21 = icmp eq ptr %9, null
  br i1 %.not21, label %.loopexit, label %10

10:                                               ; preds = %5
  %11 = getelementptr inbounds i8, ptr %0, i64 100982
  %12 = load i8, ptr %11, align 2
  %13 = and i8 %12, 1
  %14 = getelementptr inbounds i8, ptr %0, i64 100983
  %15 = load i8, ptr %14, align 1
  %16 = shl i8 %15, 3
  %17 = and i8 %16, 8
  %.1 = or disjoint i8 %17, %13
  %18 = getelementptr inbounds i8, ptr %0, i64 100984
  %19 = load i8, ptr %18, align 8
  %20 = shl i8 %19, 4
  %21 = and i8 %20, 16
  %.2 = or disjoint i8 %.1, %21
  %22 = getelementptr inbounds i8, ptr %0, i64 100985
  %23 = load i8, ptr %22, align 1
  %24 = shl i8 %23, 1
  %25 = and i8 %24, 2
  %.4 = or disjoint i8 %.2, %25
  %26 = getelementptr inbounds i8, ptr %0, i64 100992
  %27 = load i8, ptr %26, align 8
  %28 = shl i8 %27, 2
  %29 = and i8 %28, 4
  %.5 = or disjoint i8 %.4, %29
  %30 = getelementptr inbounds i8, ptr %0, i64 100988
  %31 = load float, ptr %30, align 4
  %32 = fptoui float %31 to i8
  %33 = tail call noundef i32 @_ZNK7dtCrowd13getAgentCountEv(ptr noundef nonnull align 8 dereferenceable(5072) %9)
  %34 = icmp sgt i32 %33, 0
  br i1 %34, label %.lr.ph, label %.loopexit

.lr.ph:                                           ; preds = %10
  %35 = getelementptr inbounds i8, ptr %2, i64 28
  %36 = getelementptr inbounds i8, ptr %2, i64 29
  %37 = getelementptr inbounds i8, ptr %0, i64 100996
  %38 = getelementptr inbounds i8, ptr %2, i64 24
  br label %39

39:                                               ; preds = %.lr.ph, %46
  %.01829 = phi i32 [ 0, %.lr.ph ], [ %47, %46 ]
  %40 = call noundef ptr @_ZN7dtCrowd8getAgentEi(ptr noundef nonnull align 8 dereferenceable(5072) %9, i32 noundef %.01829)
  %41 = load i8, ptr %40, align 8
  %42 = and i8 %41, 1
  %.not28 = icmp eq i8 %42, 0
  br i1 %.not28, label %46, label %43

43:                                               ; preds = %39
  %44 = getelementptr inbounds i8, ptr %40, i64 480
  call void @llvm.memcpy.p0.p0.i64(ptr noundef nonnull align 8 dereferenceable(40) %2, ptr noundef nonnull align 8 dereferenceable(40) %44, i64 40, i1 false)
  store i8 %.5, ptr %35, align 4
  store i8 %32, ptr %36, align 1
  %45 = load float, ptr %37, align 4
  store float %45, ptr %38, align 8
  call void @_ZN7dtCrowd21updateAgentParametersEiPK18dtCrowdAgentParams(ptr noundef nonnull align 8 dereferenceable(5072) %9, i32 noundef %.01829, ptr noundef nonnull %2)
  br label %46

46:                                               ; preds = %39, %43
  %47 = add nuw nsw i32 %.01829, 1
  %48 = call noundef i32 @_ZNK7dtCrowd13getAgentCountEv(ptr noundef nonnull align 8 dereferenceable(5072) %9)
  %49 = icmp slt i32 %47, %48
  br i1 %49, label %39, label %.loopexit, !llvm.loop !34

.loopexit:                                        ; preds = %46, %10, %5, %1
  ret void
}